target datalayout = "e-m:e-p270:32:32-p271:32:32-p272:64:64-i64:64-i128:128-f80:128-n8:16:32:64-S128"
target triple = "x86_64-pc-linux-gnu"

%struct.ObjectAddress = type { i32, i32, i32 }
%struct.ItemPointerData = type { %struct.BlockIdData, i16 }
%struct.BlockIdData = type { i16, i16 }
%struct.ScanKeyData = type { i32, i16, i16, i32, i32, %struct.FmgrInfo, i64 }
%struct.FmgrInfo = type { ptr, i32, i16, i8, i8, i8, ptr, ptr, ptr }
%struct.FormData_pg_depend = type { i32, i32, i32, i32, i32, i32, i8 }
%struct.HeapTupleData = type { i32, %struct.ItemPointerData, i32, ptr }
%struct.HeapTupleHeaderData = type { %union.anon, %struct.ItemPointerData, i16, i16, i8, [0 x i8] }
%union.anon = type { %struct.HeapTupleFields }
%struct.HeapTupleFields = type { i32, i32, %union.anon.0 }
%union.anon.0 = type { i32 }

@.str.1 = private unnamed_addr constant [12 x i8] c"pg_depend.c\00", align 1
@.str.5 = private unnamed_addr constant [61 x i8] c"cannot remove dependency on %s because it is a system object\00", align 1
@__func__.changeDependenciesOn = private unnamed_addr constant [21 x i8] c"changeDependenciesOn\00", align 1

; Function Attrs: inlinehint nounwind uwtable
define internal ptr @GETSTRUCT(ptr noundef %0) #3 {
  %2 = alloca ptr, align 8
  store ptr %0, ptr %2, align 8
  %3 = load ptr, ptr %2, align 8
  %4 = getelementptr inbounds nuw %struct.HeapTupleData, ptr %3, i32 0, i32 3
  %5 = load ptr, ptr %4, align 8
  %6 = load ptr, ptr %2, align 8
  %7 = getelementptr inbounds nuw %struct.HeapTupleData, ptr %6, i32 0, i32 3
  %8 = load ptr, ptr %7, align 8
  %9 = getelementptr inbounds nuw %struct.HeapTupleHeaderData, ptr %8, i32 0, i32 4
  %10 = load i8, ptr %9, align 2
  %11 = zext i8 %10 to i32
  %12 = sext i32 %11 to i64
  %13 = getelementptr inbounds i8, ptr %5, i64 %12
  ret ptr %13
}

; Function Attrs: inlinehint nounwind uwtable
define internal i64 @ObjectIdGetDatum(i32 noundef %0) #3 {
  %2 = alloca i32, align 4
  store i32 %0, ptr %2, align 4
  %3 = load i32, ptr %2, align 4
  %4 = zext i32 %3 to i64
  ret i64 %4
}

; Function Attrs: nounwind uwtable
define internal zeroext i1 @isObjectPinned(ptr noundef %0) #0 {
  %2 = alloca ptr, align 8
  store ptr %0, ptr %2, align 8
  %3 = load ptr, ptr %2, align 8
  %4 = getelementptr inbounds nuw %struct.ObjectAddress, ptr %3, i32 0, i32 0
  %5 = load i32, ptr %4, align 4
  %6 = load ptr, ptr %2, align 8
  %7 = getelementptr inbounds nuw %struct.ObjectAddress, ptr %6, i32 0, i32 1
  %8 = load i32, ptr %7, align 4
  %9 = call zeroext i1 @IsPinnedObject(i32 noundef %5, i32 noundef %8)
  ret i1 %9
}

; Function Attrs: nounwind uwtable
define dso_local i64 @changeDependenciesOn(i32 noundef %0, i32 noundef %1, i32 noundef %2) #0 {
  %4 = alloca i32, align 4
  %5 = alloca i32, align 4
  %6 = alloca i32, align 4
  %7 = alloca i64, align 8
  %8 = alloca ptr, align 8
  %9 = alloca [2 x %struct.ScanKeyData], align 16
  %10 = alloca ptr, align 8
  %11 = alloca ptr, align 8
  %12 = alloca %struct.ObjectAddress, align 4
  %13 = alloca i8, align 1
  %14 = alloca ptr, align 8
  store i32 %0, ptr %4, align 4
  store i32 %1, ptr %5, align 4
  store i32 %2, ptr %6, align 4
  call void @llvm.lifetime.start.p0(i64 8, ptr %7) #6
  store i64 0, ptr %7, align 8
  call void @llvm.lifetime.start.p0(i64 8, ptr %8) #6
  call void @llvm.lifetime.start.p0(i64 144, ptr %9) #6
  call void @llvm.lifetime.start.p0(i64 8, ptr %10) #6
  call void @llvm.lifetime.start.p0(i64 8, ptr %11) #6
  call void @llvm.lifetime.start.p0(i64 12, ptr %12) #6
  call void @llvm.lifetime.start.p0(i64 1, ptr %13) #6
  %15 = call ptr @table_open(i32 noundef 2608, i32 noundef 3)
  store ptr %15, ptr %8, align 8
  %16 = load i32, ptr %4, align 4
  %17 = getelementptr inbounds nuw %struct.ObjectAddress, ptr %12, i32 0, i32 0
  store i32 %16, ptr %17, align 4
  %18 = load i32, ptr %5, align 4
  %19 = getelementptr inbounds nuw %struct.ObjectAddress, ptr %12, i32 0, i32 1
  store i32 %18, ptr %19, align 4
  %20 = getelementptr inbounds nuw %struct.ObjectAddress, ptr %12, i32 0, i32 2
  store i32 0, ptr %20, align 4
  %21 = call zeroext i1 @isObjectPinned(ptr noundef %12)
  br i1 %21, label %22, label %35

22:                                               ; preds = %3
  br label %23

23:                                               ; preds = %22
  br i1 true, label %24, label %26

24:                                               ; preds = %23
  %25 = call zeroext i1 @errstart_cold(i32 noundef 21, ptr noundef null) #7
  br i1 %25, label %28, label %32

26:                                               ; preds = %23
  %27 = call zeroext i1 @errstart(i32 noundef 21, ptr noundef null)
  br i1 %27, label %28, label %32

28:                                               ; preds = %26, %24
  %29 = call i32 @errcode(i32 noundef 1088)
  %30 = call ptr @getObjectDescription(ptr noundef %12, i1 noundef zeroext false)
  %31 = call i32 (ptr, ...) @errmsg(ptr noundef @.str.5, ptr noundef %30)
  call void @errfinish(ptr noundef @.str.1, i32 noundef 648, ptr noundef @__func__.changeDependenciesOn)
  br label %32

32:                                               ; preds = %28, %26, %24
  unreachable

33:                                               ; No predecessors!
  br label %34

34:                                               ; preds = %33
  br label %35

35:                                               ; preds = %34, %3
  %36 = load i32, ptr %6, align 4
  %37 = getelementptr inbounds nuw %struct.ObjectAddress, ptr %12, i32 0, i32 1
  store i32 %36, ptr %37, align 4
  %38 = call zeroext i1 @isObjectPinned(ptr noundef %12)
  %39 = zext i1 %38 to i8
  store i8 %39, ptr %13, align 1
  %40 = getelementptr inbounds [2 x %struct.ScanKeyData], ptr %9, i64 0, i64 0
  %41 = load i32, ptr %4, align 4
  %42 = call i64 @ObjectIdGetDatum(i32 noundef %41)
  call void @ScanKeyInit(ptr noundef %40, i16 noundef signext 4, i16 noundef zeroext 3, i32 noundef 184, i64 noundef %42)
  %43 = getelementptr inbounds [2 x %struct.ScanKeyData], ptr %9, i64 0, i64 1
  %44 = load i32, ptr %5, align 4
  %45 = call i64 @ObjectIdGetDatum(i32 noundef %44)
  call void @ScanKeyInit(ptr noundef %43, i16 noundef signext 5, i16 noundef zeroext 3, i32 noundef 184, i64 noundef %45)
  %46 = load ptr, ptr %8, align 8
  %47 = getelementptr inbounds [2 x %struct.ScanKeyData], ptr %9, i64 0, i64 0
  %48 = call ptr @systable_beginscan(ptr noundef %46, i32 noundef 2674, i1 noundef zeroext true, ptr noundef null, i32 noundef 2, ptr noundef %47)
  store ptr %48, ptr %10, align 8
  br label %49

49:                                               ; preds = %73, %35
  %50 = load ptr, ptr %10, align 8
  %51 = call ptr @systable_getnext(ptr noundef %50)
  store ptr %51, ptr %11, align 8
  %52 = icmp ne ptr %51, null
  br i1 %52, label %53, label %76

53:                                               ; preds = %49
  %54 = load i8, ptr %13, align 1, !range !7, !noundef !8
  %55 = trunc i8 %54 to i1
  br i1 %55, label %56, label %60

56:                                               ; preds = %53
  %57 = load ptr, ptr %8, align 8
  %58 = load ptr, ptr %11, align 8
  %59 = getelementptr inbounds nuw %struct.HeapTupleData, ptr %58, i32 0, i32 1
  call void @CatalogTupleDelete(ptr noundef %57, ptr noundef %59)
  br label %73

60:                                               ; preds = %53
  call void @llvm.lifetime.start.p0(i64 8, ptr %14) #6
  %61 = load ptr, ptr %11, align 8
  %62 = call ptr @heap_copytuple(ptr noundef %61)
  store ptr %62, ptr %11, align 8
  %63 = load ptr, ptr %11, align 8
  %64 = call ptr @GETSTRUCT(ptr noundef %63)
  store ptr %64, ptr %14, align 8
  %65 = load i32, ptr %6, align 4
  %66 = load ptr, ptr %14, align 8
  %67 = getelementptr inbounds nuw %struct.FormData_pg_depend, ptr %66, i32 0, i32 4
  store i32 %65, ptr %67, align 4
  %68 = load ptr, ptr %8, align 8
  %69 = load ptr, ptr %11, align 8
  %70 = getelementptr inbounds nuw %struct.HeapTupleData, ptr %69, i32 0, i32 1
  %71 = load ptr, ptr %11, align 8
  call void @CatalogTupleUpdate(ptr noundef %68, ptr noundef %70, ptr noundef %71)
  %72 = load ptr, ptr %11, align 8
  call void @heap_freetuple(ptr noundef %72)
  call void @llvm.lifetime.end.p0(i64 8, ptr %14) #6
  br label %73

73:                                               ; preds = %60, %56
  %74 = load i64, ptr %7, align 8
  %75 = add i64 %74, 1
  store i64 %75, ptr %7, align 8
  br label %49, !llvm.loop !15

76:                                               ; preds = %49
  %77 = load ptr, ptr %10, align 8
  call void @systable_endscan(ptr noundef %77)
  %78 = load ptr, ptr %8, align 8
  call void @table_close(ptr noundef %78, i32 noundef 3)
  %79 = load i64, ptr %7, align 8
  call void @llvm.lifetime.end.p0(i64 1, ptr %13) #6
  call void @llvm.lifetime.end.p0(i64 12, ptr %12) #6
  call void @llvm.lifetime.end.p0(i64 8, ptr %11) #6
  call void @llvm.lifetime.end.p0(i64 8, ptr %10) #6
  call void @llvm.lifetime.end.p0(i64 144, ptr %9) #6
  call void @llvm.lifetime.end.p0(i64 8, ptr %8) #6
  call void @llvm.lifetime.end.p0(i64 8, ptr %7) #6
  ret i64 %79
}