; Function Attrs: nounwind uwtable
define dso_local i64 @changeDependenciesOn(i32 noundef %0, i32 noundef %1, i32 noundef %2) local_unnamed_addr #0 {
  %4 = alloca [2 x %struct.ScanKeyData], align 16
  %5 = alloca %struct.ObjectAddress, align 4
  call void @llvm.lifetime.start.p0(i64 144, ptr nonnull %4) #7
  call void @llvm.lifetime.start.p0(i64 12, ptr nonnull %5) #7
  %6 = tail call ptr @table_open(i32 noundef 2608, i32 noundef 3) #7
  store i32 %0, ptr %5, align 4
  %7 = getelementptr inbounds nuw i8, ptr %5, i64 4
  store i32 %1, ptr %7, align 4
  %8 = getelementptr inbounds nuw i8, ptr %5, i64 8
  store i32 0, ptr %8, align 4
  %9 = tail call zeroext i1 @IsPinnedObject(i32 noundef %0, i32 noundef %1) #7
  br i1 %9, label %10, label %15

10:                                               ; preds = %3
  %11 = tail call zeroext i1 @errstart_cold(i32 noundef 21, ptr noundef null) #8
  tail call void @llvm.assume(i1 %11)
  %12 = tail call i32 @errcode(i32 noundef 1088) #7
  %13 = call ptr @getObjectDescription(ptr noundef nonnull %5, i1 noundef zeroext false) #7
  %14 = call i32 (ptr, ...) @errmsg(ptr noundef nonnull @.str.5, ptr noundef %13) #7
  call void @errfinish(ptr noundef nonnull @.str.1, i32 noundef 648, ptr noundef nonnull @__func__.changeDependenciesOn) #7
  unreachable

15:                                               ; preds = %3
  store i32 %2, ptr %7, align 4
  %16 = tail call zeroext i1 @IsPinnedObject(i32 noundef %0, i32 noundef %2) #7
  %17 = zext i32 %0 to i64
  call void @ScanKeyInit(ptr noundef nonnull %4, i16 noundef signext 4, i16 noundef zeroext 3, i32 noundef 184, i64 noundef %17) #7
  %18 = getelementptr inbounds nuw i8, ptr %4, i64 72
  %19 = zext i32 %1 to i64
  call void @ScanKeyInit(ptr noundef nonnull %18, i16 noundef signext 5, i16 noundef zeroext 3, i32 noundef 184, i64 noundef %19) #7
  %20 = call ptr @systable_beginscan(ptr noundef %6, i32 noundef 2674, i1 noundef zeroext true, ptr noundef null, i32 noundef 2, ptr noundef nonnull %4) #7
  %21 = call ptr @systable_getnext(ptr noundef %20) #7
  %.not26 = icmp eq ptr %21, null
  br i1 %.not26, label %._crit_edge, label %.lr.ph

.lr.ph:                                           ; preds = %15
  br i1 %16, label %.lr.ph.split.us, label %.lr.ph.split

.lr.ph.split.us:                                  ; preds = %.lr.ph, %.lr.ph.split.us
  %22 = phi ptr [ %25, %.lr.ph.split.us ], [ %21, %.lr.ph ]
  %.027.us = phi i64 [ %24, %.lr.ph.split.us ], [ 0, %.lr.ph ]
  %23 = getelementptr inbounds nuw i8, ptr %22, i64 4
  call void @CatalogTupleDelete(ptr noundef %6, ptr noundef nonnull %23) #7
  %24 = add i64 %.027.us, 1
  %25 = call ptr @systable_getnext(ptr noundef %20) #7
  %.not.us = icmp eq ptr %25, null
  br i1 %.not.us, label %._crit_edge, label %.lr.ph.split.us, !llvm.loop !14

.lr.ph.split:                                     ; preds = %.lr.ph, %.lr.ph.split
  %26 = phi ptr [ %36, %.lr.ph.split ], [ %21, %.lr.ph ]
  %.027 = phi i64 [ %35, %.lr.ph.split ], [ 0, %.lr.ph ]
  %27 = call ptr @heap_copytuple(ptr noundef nonnull %26) #7
  %28 = getelementptr i8, ptr %27, i64 16
  %.val25 = load ptr, ptr %28, align 8
  %29 = getelementptr inbounds nuw i8, ptr %.val25, i64 22
  %30 = load i8, ptr %29, align 2
  %31 = zext i8 %30 to i64
  %32 = getelementptr inbounds nuw i8, ptr %.val25, i64 %31
  %33 = getelementptr inbounds nuw i8, ptr %32, i64 16
  store i32 %2, ptr %33, align 4
  %34 = getelementptr inbounds nuw i8, ptr %27, i64 4
  call void @CatalogTupleUpdate(ptr noundef %6, ptr noundef nonnull %34, ptr noundef %27) #7
  call void @heap_freetuple(ptr noundef %27) #7
  %35 = add i64 %.027, 1
  %36 = call ptr @systable_getnext(ptr noundef %20) #7
  %.not = icmp eq ptr %36, null
  br i1 %.not, label %._crit_edge, label %.lr.ph.split, !llvm.loop !14

._crit_edge:                                      ; preds = %.lr.ph.split, %.lr.ph.split.us, %15
  %.0.lcssa = phi i64 [ 0, %15 ], [ %24, %.lr.ph.split.us ], [ %35, %.lr.ph.split ]
  call void @systable_endscan(ptr noundef %20) #7
  call void @table_close(ptr noundef %6, i32 noundef 3) #7
  call void @llvm.lifetime.end.p0(i64 12, ptr nonnull %5) #7
  call void @llvm.lifetime.end.p0(i64 144, ptr nonnull %4) #7
  ret i64 %.0.lcssa
}